target datalayout = "e-m:e-p270:32:32-p271:32:32-p272:64:64-i64:64-i128:128-f80:128-n8:16:32:64-S128"
target triple = "x86_64-pc-linux-gnu"

@_ZZ15EnumConfigPathsjPwmbE8ConfPath = internal global [5 x ptr] [ptr @.str.3, ptr @.str.4, ptr @.str.5, ptr @.str.6, ptr @.str.7], align 16
@.str.8 = private unnamed_addr constant [5 x i8] c"HOME\00", align 1

; Function Attrs: mustprogress nounwind uwtable
define void @_Z11AddEndSlashPwm(ptr noundef %0, i64 noundef %1) #2 {
  %3 = alloca ptr, align 8
  %4 = alloca i64, align 8
  %5 = alloca i64, align 8
  store ptr %0, ptr %3, align 8
  store i64 %1, ptr %4, align 8
  %6 = load ptr, ptr %3, align 8
  %7 = call i64 @wcslen(ptr noundef %6) #6
  store i64 %7, ptr %5, align 8
  %8 = load i64, ptr %5, align 8
  %9 = icmp ugt i64 %8, 0
  br i1 %9, label %10, label %30

10:                                               ; preds = %2
  %11 = load ptr, ptr %3, align 8
  %12 = load i64, ptr %5, align 8
  %13 = sub i64 %12, 1
  %14 = getelementptr inbounds i32, ptr %11, i64 %13
  %15 = load i32, ptr %14, align 4
  %16 = icmp ne i32 %15, 47
  br i1 %16, label %17, label %30

17:                                               ; preds = %10
  %18 = load i64, ptr %5, align 8
  %19 = add i64 %18, 1
  %20 = load i64, ptr %4, align 8
  %21 = icmp ult i64 %19, %20
  br i1 %21, label %22, label %30

22:                                               ; preds = %17
  %23 = load ptr, ptr %3, align 8
  %24 = load i64, ptr %5, align 8
  %25 = getelementptr inbounds i32, ptr %23, i64 %24
  store i32 47, ptr %25, align 4
  %26 = load ptr, ptr %3, align 8
  %27 = load i64, ptr %5, align 8
  %28 = add i64 %27, 1
  %29 = getelementptr inbounds i32, ptr %26, i64 %28
  store i32 0, ptr %29, align 4
  br label %30

30:                                               ; preds = %22, %17, %10, %2
  ret void
}

; Function Attrs: mustprogress uwtable
define noundef zeroext i1 @_Z15EnumConfigPathsjPwmb(i32 noundef %0, ptr noundef %1, i64 noundef %2, i1 noundef zeroext %3) #0 {
  %5 = alloca i1, align 1
  %6 = alloca i32, align 4
  %7 = alloca ptr, align 8
  %8 = alloca i64, align 8
  %9 = alloca i8, align 1
  %10 = alloca ptr, align 8
  store i32 %0, ptr %6, align 4
  store ptr %1, ptr %7, align 8
  store i64 %2, ptr %8, align 8
  %11 = zext i1 %3 to i8
  store i8 %11, ptr %9, align 1
  %12 = load i32, ptr %6, align 4
  %13 = icmp eq i32 %12, 0
  br i1 %13, label %14, label %28

14:                                               ; preds = %4
  %15 = call ptr @getenv(ptr noundef @.str.8) #7
  store ptr %15, ptr %10, align 8
  %16 = load ptr, ptr %10, align 8
  %17 = icmp ne ptr %16, null
  br i1 %17, label %18, label %23

18:                                               ; preds = %14
  %19 = load ptr, ptr %10, align 8
  %20 = load ptr, ptr %7, align 8
  %21 = load i64, ptr %8, align 8
  %22 = call noundef zeroext i1 @_Z10CharToWidePKcPwm(ptr noundef %19, ptr noundef %20, i64 noundef %21)
  br label %27

23:                                               ; preds = %14
  %24 = load ptr, ptr %7, align 8
  %25 = load ptr, ptr @_ZZ15EnumConfigPathsjPwmbE8ConfPath, align 16
  %26 = load i64, ptr %8, align 8
  call void @_Z8wcsncpyzPwPKwm(ptr noundef %24, ptr noundef %25, i64 noundef %26)
  br label %27

27:                                               ; preds = %23, %18
  store i1 true, ptr %5, align 1
  br label %42

28:                                               ; preds = %4
  %29 = load i32, ptr %6, align 4
  %30 = add i32 %29, -1
  store i32 %30, ptr %6, align 4
  %31 = load i32, ptr %6, align 4
  %32 = zext i32 %31 to i64
  %33 = icmp uge i64 %32, 5
  br i1 %33, label %34, label %35

34:                                               ; preds = %28
  store i1 false, ptr %5, align 1
  br label %42

35:                                               ; preds = %28
  %36 = load ptr, ptr %7, align 8
  %37 = load i32, ptr %6, align 4
  %38 = zext i32 %37 to i64
  %39 = getelementptr inbounds [5 x ptr], ptr @_ZZ15EnumConfigPathsjPwmbE8ConfPath, i64 0, i64 %38
  %40 = load ptr, ptr %39, align 8
  %41 = load i64, ptr %8, align 8
  call void @_Z8wcsncpyzPwPKwm(ptr noundef %36, ptr noundef %40, i64 noundef %41)
  store i1 true, ptr %5, align 1
  br label %42

42:                                               ; preds = %35, %34, %27
  %43 = load i1, ptr %5, align 1
  ret i1 %43
}

; Function Attrs: mustprogress uwtable
define void @_Z13GetConfigNamePKwPwmbb(ptr noundef %0, ptr noundef %1, i64 noundef %2, i1 noundef zeroext %3, i1 noundef zeroext %4) #0 {
  %6 = alloca ptr, align 8
  %7 = alloca ptr, align 8
  %8 = alloca i64, align 8
  %9 = alloca i8, align 1
  %10 = alloca i8, align 1
  %11 = alloca i32, align 4
  store ptr %0, ptr %6, align 8
  store ptr %1, ptr %7, align 8
  store i64 %2, ptr %8, align 8
  %12 = zext i1 %3 to i8
  store i8 %12, ptr %9, align 1
  %13 = zext i1 %4 to i8
  store i8 %13, ptr %10, align 1
  %14 = load ptr, ptr %7, align 8
  store i32 0, ptr %14, align 4
  store i32 0, ptr %11, align 4
  br label %15

15:                                               ; preds = %35, %5
  %16 = load i32, ptr %11, align 4
  %17 = load ptr, ptr %7, align 8
  %18 = load i64, ptr %8, align 8
  %19 = load i8, ptr %10, align 1
  %20 = trunc i8 %19 to i1
  %21 = call noundef zeroext i1 @_Z15EnumConfigPathsjPwmb(i32 noundef %16, ptr noundef %17, i64 noundef %18, i1 noundef zeroext %20)
  br i1 %21, label %22, label %38

22:                                               ; preds = %15
  %23 = load ptr, ptr %7, align 8
  %24 = load i64, ptr %8, align 8
  call void @_Z11AddEndSlashPwm(ptr noundef %23, i64 noundef %24)
  %25 = load ptr, ptr %7, align 8
  %26 = load ptr, ptr %6, align 8
  %27 = load i64, ptr %8, align 8
  call void @_Z8wcsncatzPwPKwm(ptr noundef %25, ptr noundef %26, i64 noundef %27)
  %28 = load i8, ptr %9, align 1
  %29 = trunc i8 %28 to i1
  br i1 %29, label %30, label %33

30:                                               ; preds = %22
  %31 = load ptr, ptr %7, align 8
  %32 = call noundef zeroext i1 @_Z13WildFileExistPKw(ptr noundef %31)
  br i1 %32, label %33, label %34

33:                                               ; preds = %30, %22
  br label %38

34:                                               ; preds = %30
  br label %35

35:                                               ; preds = %34
  %36 = load i32, ptr %11, align 4
  %37 = add i32 %36, 1
  store i32 %37, ptr %11, align 4
  br label %15, !llvm.loop !10

38:                                               ; preds = %33, %15
  ret void
}