; Function Attrs: mustprogress uwtable
define void @_Z13GetConfigNamePKwPwmbb(ptr noundef %0, ptr noundef initializes((0, 4)) %1, i64 noundef %2, i1 noundef zeroext %3, i1 noundef zeroext %4) local_unnamed_addr #3 {
  store i32 0, ptr %1, align 4
  br i1 %3, label %.split.us, label %.split

.split.us:                                        ; preds = %5, %_Z11AddEndSlashPwm.exit.us
  %.0.us = phi i32 [ %31, %_Z11AddEndSlashPwm.exit.us ], [ 0, %5 ]
  %6 = icmp eq i32 %.0.us, 0
  br i1 %6, label %14, label %7

7:                                                ; preds = %.split.us
  %8 = add nsw i32 %.0.us, -1
  %9 = icmp ugt i32 %8, 4
  br i1 %9, label %_Z15EnumConfigPathsjPwmb.exit, label %10

10:                                               ; preds = %7
  %11 = zext nneg i32 %8 to i64
  %12 = getelementptr inbounds nuw [5 x ptr], ptr @_ZZ15EnumConfigPathsjPwmbE8ConfPath, i64 0, i64 %11
  %13 = load ptr, ptr %12, align 8
  tail call void @_Z8wcsncpyzPwPKwm(ptr noundef nonnull %1, ptr noundef %13, i64 noundef %2)
  br label %19

14:                                               ; preds = %.split.us
  %15 = tail call ptr @getenv(ptr noundef nonnull @.str.8) #19
  %.not.i.us = icmp eq ptr %15, null
  br i1 %.not.i.us, label %18, label %16

16:                                               ; preds = %14
  %17 = tail call noundef zeroext i1 @_Z10CharToWidePKcPwm(ptr noundef nonnull %15, ptr noundef nonnull %1, i64 noundef %2)
  br label %19

18:                                               ; preds = %14
  tail call void @_Z8wcsncpyzPwPKwm(ptr noundef nonnull %1, ptr noundef nonnull @.str.3, i64 noundef %2)
  br label %19

19:                                               ; preds = %18, %16, %10
  %20 = tail call i64 @wcslen(ptr noundef nonnull %1) #18
  %.not.i12.us = icmp eq i64 %20, 0
  br i1 %.not.i12.us, label %_Z11AddEndSlashPwm.exit.us, label %21

21:                                               ; preds = %19
  %22 = getelementptr i32, ptr %1, i64 %20
  %23 = getelementptr i8, ptr %22, i64 -4
  %24 = load i32, ptr %23, align 4
  %.not10.i.us = icmp eq i32 %24, 47
  br i1 %.not10.i.us, label %_Z11AddEndSlashPwm.exit.us, label %25

25:                                               ; preds = %21
  %26 = add i64 %20, 1
  %27 = icmp ult i64 %26, %2
  br i1 %27, label %28, label %_Z11AddEndSlashPwm.exit.us

28:                                               ; preds = %25
  store i32 47, ptr %22, align 4
  %29 = getelementptr inbounds i32, ptr %1, i64 %26
  store i32 0, ptr %29, align 4
  br label %_Z11AddEndSlashPwm.exit.us

_Z11AddEndSlashPwm.exit.us:                       ; preds = %28, %25, %21, %19
  tail call void @_Z8wcsncatzPwPKwm(ptr noundef nonnull %1, ptr noundef %0, i64 noundef %2)
  %30 = tail call noundef zeroext i1 @_Z13WildFileExistPKw(ptr noundef nonnull %1)
  %31 = add nuw nsw i32 %.0.us, 1
  br i1 %30, label %_Z15EnumConfigPathsjPwmb.exit, label %.split.us, !llvm.loop !10

.split:                                           ; preds = %5
  %32 = tail call ptr @getenv(ptr noundef nonnull @.str.8) #19
  %.not.i = icmp eq ptr %32, null
  br i1 %.not.i, label %35, label %33

33:                                               ; preds = %.split
  %34 = tail call noundef zeroext i1 @_Z10CharToWidePKcPwm(ptr noundef nonnull %32, ptr noundef nonnull %1, i64 noundef %2)
  br label %36

35:                                               ; preds = %.split
  tail call void @_Z8wcsncpyzPwPKwm(ptr noundef nonnull %1, ptr noundef nonnull @.str.3, i64 noundef %2)
  br label %36

36:                                               ; preds = %35, %33
  %37 = tail call i64 @wcslen(ptr noundef nonnull %1) #18
  %.not.i12 = icmp eq i64 %37, 0
  br i1 %.not.i12, label %_Z11AddEndSlashPwm.exit, label %38

38:                                               ; preds = %36
  %39 = getelementptr i32, ptr %1, i64 %37
  %40 = getelementptr i8, ptr %39, i64 -4
  %41 = load i32, ptr %40, align 4
  %.not10.i = icmp eq i32 %41, 47
  br i1 %.not10.i, label %_Z11AddEndSlashPwm.exit, label %42

42:                                               ; preds = %38
  %43 = add i64 %37, 1
  %44 = icmp ult i64 %43, %2
  br i1 %44, label %45, label %_Z11AddEndSlashPwm.exit

45:                                               ; preds = %42
  store i32 47, ptr %39, align 4
  %46 = getelementptr inbounds i32, ptr %1, i64 %43
  store i32 0, ptr %46, align 4
  br label %_Z11AddEndSlashPwm.exit

_Z11AddEndSlashPwm.exit:                          ; preds = %36, %38, %42, %45
  tail call void @_Z8wcsncatzPwPKwm(ptr noundef nonnull %1, ptr noundef %0, i64 noundef %2)
  br label %_Z15EnumConfigPathsjPwmb.exit

_Z15EnumConfigPathsjPwmb.exit:                    ; preds = %7, %_Z11AddEndSlashPwm.exit.us, %_Z11AddEndSlashPwm.exit
  ret void
}